target datalayout = "e-m:e-p270:32:32-p271:32:32-p272:64:64-i64:64-i128:128-f80:128-n8:16:32:64-S128"
target triple = "x86_64-pc-linux-gnu"

%struct.bn_blinding_st = type { ptr, ptr, ptr, ptr, i64, i32, i64, ptr, ptr, ptr }

@.str = private unnamed_addr constant [32 x i8] c"../openssl/crypto/bn/bn_blind.c\00", align 1
@__func__.BN_BLINDING_convert_ex = private unnamed_addr constant [23 x i8] c"BN_BLINDING_convert_ex\00", align 1

; Function Attrs: nounwind uwtable
define i32 @BN_BLINDING_convert_ex(ptr noundef %0, ptr noundef %1, ptr noundef %2, ptr noundef %3) #0 {
  %5 = alloca i32, align 4
  %6 = alloca ptr, align 8
  %7 = alloca ptr, align 8
  %8 = alloca ptr, align 8
  %9 = alloca ptr, align 8
  %10 = alloca i32, align 4
  %11 = alloca i32, align 4
  store ptr %0, ptr %6, align 8, !tbaa !3
  store ptr %1, ptr %7, align 8, !tbaa !3
  store ptr %2, ptr %8, align 8, !tbaa !8
  store ptr %3, ptr %9, align 8, !tbaa !21
  call void @llvm.lifetime.start.p0(i64 4, ptr %10) #3
  store i32 1, ptr %10, align 4, !tbaa !23
  %12 = load ptr, ptr %8, align 8, !tbaa !8
  %13 = getelementptr inbounds nuw %struct.bn_blinding_st, ptr %12, i32 0, i32 0
  %14 = load ptr, ptr %13, align 8, !tbaa !15
  %15 = icmp eq ptr %14, null
  br i1 %15, label %21, label %16

16:                                               ; preds = %4
  %17 = load ptr, ptr %8, align 8, !tbaa !8
  %18 = getelementptr inbounds nuw %struct.bn_blinding_st, ptr %17, i32 0, i32 1
  %19 = load ptr, ptr %18, align 8, !tbaa !16
  %20 = icmp eq ptr %19, null
  br i1 %20, label %21, label %22

21:                                               ; preds = %16, %4
  call void @ERR_new()
  call void @ERR_set_debug(ptr noundef @.str, i32 noundef 139, ptr noundef @__func__.BN_BLINDING_convert_ex)
  call void (i32, i32, ptr, ...) @ERR_set_error(i32 noundef 3, i32 noundef 107, ptr noundef null)
  store i32 0, ptr %5, align 4
  store i32 1, ptr %11, align 4
  br label %77

22:                                               ; preds = %16
  %23 = load ptr, ptr %8, align 8, !tbaa !8
  %24 = getelementptr inbounds nuw %struct.bn_blinding_st, ptr %23, i32 0, i32 5
  %25 = load i32, ptr %24, align 8, !tbaa !18
  %26 = icmp eq i32 %25, -1
  br i1 %26, label %27, label %30

27:                                               ; preds = %22
  %28 = load ptr, ptr %8, align 8, !tbaa !8
  %29 = getelementptr inbounds nuw %struct.bn_blinding_st, ptr %28, i32 0, i32 5
  store i32 0, ptr %29, align 8, !tbaa !18
  br label %37

30:                                               ; preds = %22
  %31 = load ptr, ptr %8, align 8, !tbaa !8
  %32 = load ptr, ptr %9, align 8, !tbaa !21
  %33 = call i32 @BN_BLINDING_update(ptr noundef %31, ptr noundef %32)
  %34 = icmp ne i32 %33, 0
  br i1 %34, label %36, label %35

35:                                               ; preds = %30
  store i32 0, ptr %5, align 4
  store i32 1, ptr %11, align 4
  br label %77

36:                                               ; preds = %30
  br label %37

37:                                               ; preds = %36, %27
  %38 = load ptr, ptr %7, align 8, !tbaa !3
  %39 = icmp ne ptr %38, null
  br i1 %39, label %40, label %48

40:                                               ; preds = %37
  %41 = load ptr, ptr %7, align 8, !tbaa !3
  %42 = load ptr, ptr %8, align 8, !tbaa !8
  %43 = getelementptr inbounds nuw %struct.bn_blinding_st, ptr %42, i32 0, i32 1
  %44 = load ptr, ptr %43, align 8, !tbaa !16
  %45 = call ptr @BN_copy(ptr noundef %41, ptr noundef %44)
  %46 = icmp eq ptr %45, null
  br i1 %46, label %47, label %48

47:                                               ; preds = %40
  store i32 0, ptr %5, align 4
  store i32 1, ptr %11, align 4
  br label %77

48:                                               ; preds = %40, %37
  %49 = load ptr, ptr %8, align 8, !tbaa !8
  %50 = getelementptr inbounds nuw %struct.bn_blinding_st, ptr %49, i32 0, i32 7
  %51 = load ptr, ptr %50, align 8, !tbaa !25
  %52 = icmp ne ptr %51, null
  br i1 %52, label %53, label %64

53:                                               ; preds = %48
  %54 = load ptr, ptr %6, align 8, !tbaa !3
  %55 = load ptr, ptr %6, align 8, !tbaa !3
  %56 = load ptr, ptr %8, align 8, !tbaa !8
  %57 = getelementptr inbounds nuw %struct.bn_blinding_st, ptr %56, i32 0, i32 0
  %58 = load ptr, ptr %57, align 8, !tbaa !15
  %59 = load ptr, ptr %8, align 8, !tbaa !8
  %60 = getelementptr inbounds nuw %struct.bn_blinding_st, ptr %59, i32 0, i32 7
  %61 = load ptr, ptr %60, align 8, !tbaa !25
  %62 = load ptr, ptr %9, align 8, !tbaa !21
  %63 = call i32 @BN_mod_mul_montgomery(ptr noundef %54, ptr noundef %55, ptr noundef %58, ptr noundef %61, ptr noundef %62)
  store i32 %63, ptr %10, align 4, !tbaa !23
  br label %75

64:                                               ; preds = %48
  %65 = load ptr, ptr %6, align 8, !tbaa !3
  %66 = load ptr, ptr %6, align 8, !tbaa !3
  %67 = load ptr, ptr %8, align 8, !tbaa !8
  %68 = getelementptr inbounds nuw %struct.bn_blinding_st, ptr %67, i32 0, i32 0
  %69 = load ptr, ptr %68, align 8, !tbaa !15
  %70 = load ptr, ptr %8, align 8, !tbaa !8
  %71 = getelementptr inbounds nuw %struct.bn_blinding_st, ptr %70, i32 0, i32 3
  %72 = load ptr, ptr %71, align 8, !tbaa !17
  %73 = load ptr, ptr %9, align 8, !tbaa !21
  %74 = call i32 @BN_mod_mul(ptr noundef %65, ptr noundef %66, ptr noundef %69, ptr noundef %72, ptr noundef %73)
  store i32 %74, ptr %10, align 4, !tbaa !23
  br label %75

75:                                               ; preds = %64, %53
  %76 = load i32, ptr %10, align 4, !tbaa !23
  store i32 %76, ptr %5, align 4
  store i32 1, ptr %11, align 4
  br label %77

77:                                               ; preds = %75, %47, %35, %21
  call void @llvm.lifetime.end.p0(i64 4, ptr %10) #3
  %78 = load i32, ptr %5, align 4
  ret i32 %78
}