; Function Attrs: nounwind uwtable
define i32 @BN_BLINDING_convert_ex(ptr noundef %0, ptr noundef %1, ptr noundef %2, ptr noundef %3) local_unnamed_addr #0 {
  %5 = load ptr, ptr %2, align 8, !tbaa !13
  %6 = icmp eq ptr %5, null
  br i1 %6, label %11, label %7

7:                                                ; preds = %4
  %8 = getelementptr inbounds nuw i8, ptr %2, i64 8
  %9 = load ptr, ptr %8, align 8, !tbaa !14
  %10 = icmp eq ptr %9, null
  br i1 %10, label %11, label %12

11:                                               ; preds = %7, %4
  tail call void @ERR_new() #6
  tail call void @ERR_set_debug(ptr noundef nonnull @.str, i32 noundef 139, ptr noundef nonnull @__func__.BN_BLINDING_convert_ex) #6
  tail call void (i32, i32, ptr, ...) @ERR_set_error(i32 noundef 3, i32 noundef 107, ptr noundef null) #6
  br label %34

12:                                               ; preds = %7
  %13 = getelementptr inbounds nuw i8, ptr %2, i64 40
  %14 = load i32, ptr %13, align 8, !tbaa !16
  %15 = icmp eq i32 %14, -1
  br i1 %15, label %16, label %17

16:                                               ; preds = %12
  store i32 0, ptr %13, align 8, !tbaa !16
  br label %19

17:                                               ; preds = %12
  %18 = tail call i32 @BN_BLINDING_update(ptr noundef nonnull %2, ptr noundef %3)
  %.not = icmp eq i32 %18, 0
  br i1 %.not, label %34, label %19

19:                                               ; preds = %17, %16
  %.not24 = icmp eq ptr %1, null
  br i1 %.not24, label %24, label %20

20:                                               ; preds = %19
  %21 = load ptr, ptr %8, align 8, !tbaa !14
  %22 = tail call ptr @BN_copy(ptr noundef nonnull %1, ptr noundef %21) #6
  %23 = icmp eq ptr %22, null
  br i1 %23, label %34, label %24

24:                                               ; preds = %20, %19
  %25 = getelementptr inbounds nuw i8, ptr %2, i64 56
  %26 = load ptr, ptr %25, align 8, !tbaa !19
  %.not25 = icmp eq ptr %26, null
  %27 = load ptr, ptr %2, align 8, !tbaa !13
  br i1 %.not25, label %30, label %28

28:                                               ; preds = %24
  %29 = tail call i32 @BN_mod_mul_montgomery(ptr noundef %0, ptr noundef %0, ptr noundef %27, ptr noundef nonnull %26, ptr noundef %3) #6
  br label %34

30:                                               ; preds = %24
  %31 = getelementptr inbounds nuw i8, ptr %2, i64 24
  %32 = load ptr, ptr %31, align 8, !tbaa !15
  %33 = tail call i32 @BN_mod_mul(ptr noundef %0, ptr noundef %0, ptr noundef %27, ptr noundef %32, ptr noundef %3) #6
  br label %34

34:                                               ; preds = %28, %30, %20, %17, %11
  %.021 = phi i32 [ 0, %11 ], [ 0, %17 ], [ 0, %20 ], [ %29, %28 ], [ %33, %30 ]
  ret i32 %.021
}